target datalayout = "e-m:e-p270:32:32-p271:32:32-p272:64:64-i64:64-i128:128-f80:128-n8:16:32:64-S128"
target triple = "x86_64-pc-linux-gnu"

%struct.pdf_struct = type { ptr, i32, i32, i32, i32, i32, ptr, i64, ptr, i64, i64, i64, ptr, ptr, i32, i32, ptr, i32, ptr, i32, %struct.pdf_stats, ptr, i32, i32 }
%struct.pdf_stats = type { i32, i32, i32, i32, i32, i32, i32, i32, i32, i32, i32, i32, i32, i32, i32, i32, i32, i32, i32, i32, i32, i32, i32, i32, i32, ptr, ptr, ptr, ptr, ptr, ptr, ptr, ptr }

; Function Attrs: nounwind uwtable
define internal void @FlateDecode_cb(ptr noundef %0, ptr noundef %1, ptr noundef %2) #0 {
  %4 = alloca ptr, align 8
  %5 = alloca ptr, align 8
  %6 = alloca ptr, align 8
  store ptr %0, ptr %4, align 8
  store ptr %1, ptr %5, align 8
  store ptr %2, ptr %6, align 8
  %7 = load ptr, ptr %4, align 8
  %8 = icmp eq ptr null, %7
  br i1 %8, label %9, label %10

9:                                                ; preds = %3
  br label %16

10:                                               ; preds = %3
  %11 = load ptr, ptr %4, align 8
  %12 = getelementptr inbounds %struct.pdf_struct, ptr %11, i32 0, i32 20
  %13 = getelementptr inbounds %struct.pdf_stats, ptr %12, i32 0, i32 2
  %14 = load i32, ptr %13, align 8
  %15 = add nsw i32 %14, 1
  store i32 %15, ptr %13, align 8
  br label %16

16:                                               ; preds = %10, %9
  ret void
}